; ModuleID = 'source-C-CXX/22/178.cpp'
source_filename = "source-C-CXX/22/178.cpp"
target datalayout = "e-m:e-p270:32:32-p271:32:32-p272:64:64-i64:64-f80:128-n8:16:32:64-S128"
target triple = "x86_64-pc-linux-gnu"

%"class.std::ios_base::Init" = type { i8 }
%"class.std::basic_istream" = type { i32 (...)**, i64, %"class.std::basic_ios" }
%"class.std::basic_ios" = type { %"class.std::ios_base", %"class.std::basic_ostream"*, i8, i8, %"class.std::basic_streambuf"*, %"class.std::ctype"*, %"class.std::num_put"*, %"class.std::num_get"* }
%"class.std::ios_base" = type { i32 (...)**, i64, i64, i32, i32, i32, %"struct.std::ios_base::_Callback_list"*, %"struct.std::ios_base::_Words", [8 x %"struct.std::ios_base::_Words"], i32, %"struct.std::ios_base::_Words"*, %"class.std::locale" }
%"struct.std::ios_base::_Callback_list" = type { %"struct.std::ios_base::_Callback_list"*, void (i32, %"class.std::ios_base"*, i32)*, i32, i32 }
%"struct.std::ios_base::_Words" = type { i8*, i64 }
%"class.std::locale" = type { %"class.std::locale::_Impl"* }
%"class.std::locale::_Impl" = type { i32, %"class.std::locale::facet"**, i64, %"class.std::locale::facet"**, i8** }
%"class.std::locale::facet" = type <{ i32 (...)**, i32, [4 x i8] }>
%"class.std::basic_ostream" = type { i32 (...)**, %"class.std::basic_ios" }
%"class.std::basic_streambuf" = type { i32 (...)**, i8*, i8*, i8*, i8*, i8*, i8*, %"class.std::locale" }
%"class.std::ctype" = type <{ %"class.std::locale::facet.base", [4 x i8], %struct.__locale_struct*, i8, [7 x i8], i32*, i32*, i16*, i8, [256 x i8], [256 x i8], i8, [6 x i8] }>
%"class.std::locale::facet.base" = type <{ i32 (...)**, i32 }>
%struct.__locale_struct = type { [13 x %struct.__locale_data*], i16*, i32*, i32*, [13 x i8*] }
%struct.__locale_data = type opaque
%"class.std::num_put" = type { %"class.std::locale::facet.base", [4 x i8] }
%"class.std::num_get" = type { %"class.std::locale::facet.base", [4 x i8] }

@_ZStL8__ioinit = internal global %"class.std::ios_base::Init" zeroinitializer, align 1
@__dso_handle = external hidden global i8
@_ZSt3cin = external global %"class.std::basic_istream", align 8
@_ZSt4cout = external global %"class.std::basic_ostream", align 8
@llvm.global_ctors = appending global [1 x { i32, void ()*, i8* }] [{ i32, void ()*, i8* } { i32 65535, void ()* @_GLOBAL__sub_I_178.cpp, i8* null }]

declare void @_ZNSt8ios_base4InitC1Ev(%"class.std::ios_base::Init"* nonnull align 1 dereferenceable(1)) unnamed_addr #0

; Function Attrs: nounwind
declare void @_ZNSt8ios_base4InitD1Ev(%"class.std::ios_base::Init"* nonnull align 1 dereferenceable(1)) unnamed_addr #1

; Function Attrs: nofree nounwind
declare i32 @__cxa_atexit(void (i8*)*, i8*, i8*) local_unnamed_addr #2

; Function Attrs: mustprogress norecurse sspstrong uwtable
define dso_local i32 @main() local_unnamed_addr #3 {
  %1 = alloca i8, align 1
  %2 = alloca i8, align 1
  %3 = alloca i8, align 1
  %4 = alloca i8, align 1
  %5 = alloca [100 x i8], align 16
  %6 = getelementptr inbounds [100 x i8], [100 x i8]* %5, i64 0, i64 0
  call void @llvm.lifetime.start.p0i8(i64 100, i8* nonnull %6) #8
  %7 = load i8*, i8** bitcast (%"class.std::basic_istream"* @_ZSt3cin to i8**), align 8, !tbaa !5
  %8 = getelementptr i8, i8* %7, i64 -24
  %9 = bitcast i8* %8 to i64*
  %10 = load i64, i64* %9, align 8
  %11 = add nsw i64 %10, 240
  %12 = getelementptr inbounds i8, i8* bitcast (%"class.std::basic_istream"* @_ZSt3cin to i8*), i64 %11
  %13 = bitcast i8* %12 to %"class.std::ctype"**
  %14 = load %"class.std::ctype"*, %"class.std::ctype"** %13, align 8, !tbaa !8
  %15 = icmp eq %"class.std::ctype"* %14, null
  br i1 %15, label %16, label %17

16:                                               ; preds = %0
  tail call void @_ZSt16__throw_bad_castv() #9
  unreachable

17:                                               ; preds = %0
  %18 = getelementptr inbounds %"class.std::ctype", %"class.std::ctype"* %14, i64 0, i32 8
  %19 = load i8, i8* %18, align 8, !tbaa !13
  %20 = icmp eq i8 %19, 0
  br i1 %20, label %24, label %21

21:                                               ; preds = %17
  %22 = getelementptr inbounds %"class.std::ctype", %"class.std::ctype"* %14, i64 0, i32 9, i64 10
  %23 = load i8, i8* %22, align 1, !tbaa !15
  br label %30

24:                                               ; preds = %17
  tail call void @_ZNKSt5ctypeIcE13_M_widen_initEv(%"class.std::ctype"* nonnull align 8 dereferenceable(570) %14)
  %25 = bitcast %"class.std::ctype"* %14 to i8 (%"class.std::ctype"*, i8)***
  %26 = load i8 (%"class.std::ctype"*, i8)**, i8 (%"class.std::ctype"*, i8)*** %25, align 8, !tbaa !5
  %27 = getelementptr inbounds i8 (%"class.std::ctype"*, i8)*, i8 (%"class.std::ctype"*, i8)** %26, i64 6
  %28 = load i8 (%"class.std::ctype"*, i8)*, i8 (%"class.std::ctype"*, i8)** %27, align 8
  %29 = tail call signext i8 %28(%"class.std::ctype"* nonnull align 8 dereferenceable(570) %14, i8 signext 10)
  br label %30

30:                                               ; preds = %21, %24
  %31 = phi i8 [ %23, %21 ], [ %29, %24 ]
  %32 = call nonnull align 8 dereferenceable(16) %"class.std::basic_istream"* @_ZNSi7getlineEPclc(%"class.std::basic_istream"* nonnull align 8 dereferenceable(16) @_ZSt3cin, i8* nonnull %6, i64 100, i8 signext %31)
  %33 = call i64 @strlen(i8* noundef nonnull %6) #10
  %34 = trunc i64 %33 to i32
  %35 = icmp sgt i32 %34, 0
  br i1 %35, label %36, label %86

36:                                               ; preds = %30
  %37 = shl i64 %33, 32
  %38 = ashr exact i64 %37, 32
  %39 = and i64 %33, 4294967295
  br label %40

40:                                               ; preds = %36, %82
  %41 = phi i64 [ %39, %36 ], [ %85, %82 ]
  %42 = phi i64 [ %38, %36 ], [ %84, %82 ]
  %43 = phi i32 [ %34, %36 ], [ %65, %82 ]
  %44 = phi i32 [ %34, %36 ], [ %45, %82 ]
  %45 = add nsw i32 %44, -1
  %46 = zext i32 %45 to i64
  %47 = getelementptr inbounds [100 x i8], [100 x i8]* %5, i64 0, i64 %46
  %48 = load i8, i8* %47, align 1, !tbaa !15
  %49 = icmp eq i8 %48, 32
  br i1 %49, label %50, label %64

50:                                               ; preds = %40
  %51 = icmp eq i32 %43, %34
  br i1 %51, label %54, label %52

52:                                               ; preds = %50
  call void @llvm.lifetime.start.p0i8(i64 1, i8* nonnull %4)
  store i8 32, i8* %4, align 1, !tbaa !15
  %53 = call nonnull align 8 dereferenceable(8) %"class.std::basic_ostream"* @_ZSt16__ostream_insertIcSt11char_traitsIcEERSt13basic_ostreamIT_T0_ES6_PKS3_l(%"class.std::basic_ostream"* nonnull align 8 dereferenceable(8) @_ZSt4cout, i8* nonnull %4, i64 1)
  call void @llvm.lifetime.end.p0i8(i64 1, i8* nonnull %4)
  br label %54

54:                                               ; preds = %52, %50
  %55 = sext i32 %43 to i64
  %56 = icmp slt i64 %41, %55
  br i1 %56, label %57, label %64

57:                                               ; preds = %54, %57
  %58 = phi i64 [ %62, %57 ], [ %42, %54 ]
  %59 = getelementptr inbounds [100 x i8], [100 x i8]* %5, i64 0, i64 %58
  %60 = load i8, i8* %59, align 1, !tbaa !15
  call void @llvm.lifetime.start.p0i8(i64 1, i8* nonnull %3)
  store i8 %60, i8* %3, align 1, !tbaa !15
  %61 = call nonnull align 8 dereferenceable(8) %"class.std::basic_ostream"* @_ZSt16__ostream_insertIcSt11char_traitsIcEERSt13basic_ostreamIT_T0_ES6_PKS3_l(%"class.std::basic_ostream"* nonnull align 8 dereferenceable(8) @_ZSt4cout, i8* nonnull %3, i64 1)
  call void @llvm.lifetime.end.p0i8(i64 1, i8* nonnull %3)
  %62 = add nsw i64 %58, 1
  %63 = icmp slt i64 %62, %55
  br i1 %63, label %57, label %64, !llvm.loop !16

64:                                               ; preds = %57, %54, %40
  %65 = phi i32 [ %43, %40 ], [ %45, %54 ], [ %45, %57 ]
  %66 = icmp eq i32 %45, 0
  br i1 %66, label %67, label %82

67:                                               ; preds = %64
  %68 = icmp eq i32 %65, %34
  br i1 %68, label %71, label %69

69:                                               ; preds = %67
  call void @llvm.lifetime.start.p0i8(i64 1, i8* nonnull %2)
  store i8 32, i8* %2, align 1, !tbaa !15
  %70 = call nonnull align 8 dereferenceable(8) %"class.std::basic_ostream"* @_ZSt16__ostream_insertIcSt11char_traitsIcEERSt13basic_ostreamIT_T0_ES6_PKS3_l(%"class.std::basic_ostream"* nonnull align 8 dereferenceable(8) @_ZSt4cout, i8* nonnull %2, i64 1)
  call void @llvm.lifetime.end.p0i8(i64 1, i8* nonnull %2)
  br label %71

71:                                               ; preds = %69, %67
  %72 = icmp sgt i32 %65, 0
  br i1 %72, label %73, label %82

73:                                               ; preds = %71
  %74 = zext i32 %65 to i64
  br label %75

75:                                               ; preds = %73, %75
  %76 = phi i64 [ 0, %73 ], [ %80, %75 ]
  %77 = getelementptr inbounds [100 x i8], [100 x i8]* %5, i64 0, i64 %76
  %78 = load i8, i8* %77, align 1, !tbaa !15
  call void @llvm.lifetime.start.p0i8(i64 1, i8* nonnull %1)
  store i8 %78, i8* %1, align 1, !tbaa !15
  %79 = call nonnull align 8 dereferenceable(8) %"class.std::basic_ostream"* @_ZSt16__ostream_insertIcSt11char_traitsIcEERSt13basic_ostreamIT_T0_ES6_PKS3_l(%"class.std::basic_ostream"* nonnull align 8 dereferenceable(8) @_ZSt4cout, i8* nonnull %1, i64 1)
  call void @llvm.lifetime.end.p0i8(i64 1, i8* nonnull %1)
  %80 = add nuw nsw i64 %76, 1
  %81 = icmp eq i64 %80, %74
  br i1 %81, label %82, label %75, !llvm.loop !18

82:                                               ; preds = %75, %71, %64
  %83 = icmp sgt i64 %41, 1
  %84 = add nsw i64 %42, -1
  %85 = add nsw i64 %41, -1
  br i1 %83, label %40, label %86, !llvm.loop !19

86:                                               ; preds = %82, %30
  call void @llvm.lifetime.end.p0i8(i64 100, i8* nonnull %6) #8
  ret i32 0
}

; Function Attrs: argmemonly mustprogress nofree nosync nounwind willreturn
declare void @llvm.lifetime.start.p0i8(i64 immarg, i8* nocapture) #4

; Function Attrs: argmemonly mustprogress nofree nounwind readonly willreturn
declare i64 @strlen(i8* nocapture) local_unnamed_addr #5

; Function Attrs: argmemonly mustprogress nofree nosync nounwind willreturn
declare void @llvm.lifetime.end.p0i8(i64 immarg, i8* nocapture) #4

declare nonnull align 8 dereferenceable(16) %"class.std::basic_istream"* @_ZNSi7getlineEPclc(%"class.std::basic_istream"* nonnull align 8 dereferenceable(16), i8*, i64, i8 signext) local_unnamed_addr #0

; Function Attrs: noreturn
declare void @_ZSt16__throw_bad_castv() local_unnamed_addr #6

declare void @_ZNKSt5ctypeIcE13_M_widen_initEv(%"class.std::ctype"* nonnull align 8 dereferenceable(570)) local_unnamed_addr #0

declare nonnull align 8 dereferenceable(8) %"class.std::basic_ostream"* @_ZSt16__ostream_insertIcSt11char_traitsIcEERSt13basic_ostreamIT_T0_ES6_PKS3_l(%"class.std::basic_ostream"* nonnull align 8 dereferenceable(8), i8*, i64) local_unnamed_addr #0

; Function Attrs: sspstrong uwtable
define internal void @_GLOBAL__sub_I_178.cpp() #7 section ".text.startup" {
  tail call void @_ZNSt8ios_base4InitC1Ev(%"class.std::ios_base::Init"* nonnull align 1 dereferenceable(1) @_ZStL8__ioinit)
  %1 = tail call i32 @__cxa_atexit(void (i8*)* bitcast (void (%"class.std::ios_base::Init"*)* @_ZNSt8ios_base4InitD1Ev to void (i8*)*), i8* getelementptr inbounds (%"class.std::ios_base::Init", %"class.std::ios_base::Init"* @_ZStL8__ioinit, i64 0, i32 0), i8* nonnull @__dso_handle) #8
  ret void
}


!llvm.module.flags = !{!0, !1, !2, !3}
!llvm.ident = !{!4}

!0 = !{i32 1, !"wchar_size", i32 4}
!1 = !{i32 7, !"PIC Level", i32 2}
!2 = !{i32 7, !"PIE Level", i32 2}
!3 = !{i32 7, !"uwtable", i32 1}
!4 = !{!"clang version 13.0.0"}
!5 = !{!6, !6, i64 0}
!6 = !{!"vtable pointer", !7, i64 0}
!7 = !{!"Simple C++ TBAA"}
!8 = !{!9, !10, i64 240}
!9 = !{!"_ZTSSt9basic_iosIcSt11char_traitsIcEE", !10, i64 216, !11, i64 224, !12, i64 225, !10, i64 232, !10, i64 240, !10, i64 248, !10, i64 256}
!10 = !{!"any pointer", !11, i64 0}
!11 = !{!"omnipotent char", !7, i64 0}
!12 = !{!"bool", !11, i64 0}
!13 = !{!14, !11, i64 56}
!14 = !{!"_ZTSSt5ctypeIcE", !10, i64 16, !12, i64 24, !10, i64 32, !10, i64 40, !10, i64 48, !11, i64 56, !11, i64 57, !11, i64 313, !11, i64 569}
!15 = !{!11, !11, i64 0}
!16 = distinct !{!16, !17}
!17 = !{!"llvm.loop.mustprogress"}
!18 = distinct !{!18, !17}
!19 = distinct !{!19, !17}
